; ModuleID = '50/1461.c'
source_filename = "50/1461.c"
target datalayout = "e-m:e-p270:32:32-p271:32:32-p272:64:64-i64:64-f80:128-n8:16:32:64-S128"
target triple = "x86_64-pc-linux-gnu"

@.str = private unnamed_addr constant [3 x i8] c"%d\00", align 1
@__const.main.a = private unnamed_addr constant [15 x i32] [i32 0, i32 31, i32 59, i32 90, i32 120, i32 151, i32 181, i32 212, i32 243, i32 273, i32 304, i32 334, i32 0, i32 0, i32 0], align 16
@.str.1 = private unnamed_addr constant [4 x i8] c"%d\0A\00", align 1

; Function Attrs: noinline nounwind uwtable
define dso_local i32 @main() #0 {
  %1 = alloca i32, align 4
  %2 = alloca i32, align 4
  %3 = alloca i32, align 4
  %4 = alloca i32, align 4
  %5 = alloca i32, align 4
  %6 = alloca [15 x i32], align 16
  store i32 0, i32* %1, align 4
  store i32 0, i32* %4, align 4
  store i32 0, i32* %3, align 4
  %7 = call i32 (i8*, ...) @__isoc99_scanf(i8* getelementptr inbounds ([3 x i8], [3 x i8]* @.str, i64 0, i64 0), i32* %2)
  %8 = load i32, i32* %2, align 4
  %9 = icmp sge i32 %8, 1
  br i1 %9, label %10, label %16

10:                                               ; preds = %0
  %11 = load i32, i32* %2, align 4
  %12 = icmp sle i32 %11, 7
  br i1 %12, label %13, label %16

13:                                               ; preds = %10
  %14 = load i32, i32* %2, align 4
  %15 = sub nsw i32 6, %14
  store i32 %15, i32* %4, align 4
  br label %26

16:                                               ; preds = %10, %0
  %17 = load i32, i32* %2, align 4
  %18 = icmp sge i32 %17, 6
  br i1 %18, label %19, label %25

19:                                               ; preds = %16
  %20 = load i32, i32* %2, align 4
  %21 = icmp sle i32 %20, 7
  br i1 %21, label %22, label %25

22:                                               ; preds = %19
  %23 = load i32, i32* %2, align 4
  %24 = sub nsw i32 13, %23
  store i32 %24, i32* %4, align 4
  br label %25

25:                                               ; preds = %22, %19, %16
  br label %26

26:                                               ; preds = %25, %13
  %27 = bitcast [15 x i32]* %6 to i8*
  call void @llvm.memcpy.p0i8.p0i8.i64(i8* align 16 %27, i8* align 16 bitcast ([15 x i32]* @__const.main.a to i8*), i64 60, i1 false)
  store i32 0, i32* %5, align 4
  br label %28

28:                                               ; preds = %47, %26
  %29 = load i32, i32* %5, align 4
  %30 = icmp sle i32 %29, 11
  br i1 %30, label %31, label %50

31:                                               ; preds = %28
  %32 = load i32, i32* %5, align 4
  %33 = sext i32 %32 to i64
  %34 = getelementptr inbounds [15 x i32], [15 x i32]* %6, i64 0, i64 %33
  %35 = load i32, i32* %34, align 4
  %36 = add nsw i32 %35, 13
  %37 = load i32, i32* %4, align 4
  %38 = sub nsw i32 %36, %37
  %39 = srem i32 %38, 7
  %40 = icmp eq i32 %39, 0
  br i1 %40, label %41, label %46

41:                                               ; preds = %31
  %42 = load i32, i32* %5, align 4
  %43 = add nsw i32 %42, 1
  store i32 %43, i32* %3, align 4
  %44 = load i32, i32* %3, align 4
  %45 = call i32 (i8*, ...) @printf(i8* getelementptr inbounds ([4 x i8], [4 x i8]* @.str.1, i64 0, i64 0), i32 %44)
  br label %46

46:                                               ; preds = %41, %31
  br label %47

47:                                               ; preds = %46
  %48 = load i32, i32* %5, align 4
  %49 = add nsw i32 %48, 1
  store i32 %49, i32* %5, align 4
  br label %28

50:                                               ; preds = %28
  ret i32 0
}

declare dso_local i32 @__isoc99_scanf(i8*, ...) #1

; Function Attrs: argmemonly nounwind willreturn
declare void @llvm.memcpy.p0i8.p0i8.i64(i8* noalias nocapture writeonly, i8* noalias nocapture readonly, i64, i1 immarg) #2

declare dso_local i32 @printf(i8*, ...) #1


!llvm.module.flags = !{!0}
!llvm.ident = !{!1}

!0 = !{i32 1, !"wchar_size", i32 4}
!1 = !{!"clang version 10.0.0-4ubuntu1 "}
